; Function Attrs: null_pointer_is_valid sspstrong uwtable
define internal i32 @dissect_rnsap_ProcedureCode(ptr noundef %0, i32 noundef %1, ptr noundef %2, ptr noundef %3, i32 noundef %4) #0 {
  %6 = getelementptr inbounds nuw i8, ptr %2, i64 16
  %7 = load ptr, ptr %6, align 8
  %8 = getelementptr inbounds nuw i8, ptr %7, i64 408
  %9 = load ptr, ptr %8, align 8
  %10 = load i32, ptr @proto_rnsap, align 4
  %11 = tail call ptr @p_get_proto_data(ptr noundef %9, ptr noundef %7, i32 noundef %10, i32 noundef 0)
  %.not.i = icmp eq ptr %11, null
  br i1 %.not.i, label %12, label %rnsap_get_private_data.exit

12:                                               ; preds = %5
  %13 = load ptr, ptr %8, align 8
  %14 = tail call noalias dereferenceable_or_null(32) ptr @wmem_alloc0(ptr noundef %13, i64 noundef 32) #5
  store i32 65535, ptr %14, align 8
  %15 = getelementptr inbounds nuw i8, ptr %14, i64 8
  store i32 65535, ptr %15, align 8
  %16 = load ptr, ptr %8, align 8
  %17 = load i32, ptr @proto_rnsap, align 4
  tail call void @p_add_proto_data(ptr noundef %16, ptr noundef %7, i32 noundef %17, i32 noundef 0, ptr noundef %14)
  br label %rnsap_get_private_data.exit

rnsap_get_private_data.exit:                      ; preds = %5, %12
  %.0.i = phi ptr [ %11, %5 ], [ %14, %12 ]
  %18 = tail call i32 @dissect_per_constrained_integer(ptr noundef %0, i32 noundef %1, ptr noundef %2, ptr noundef %3, i32 noundef %4, i32 noundef 0, i32 noundef 255, ptr noundef %.0.i, i1 noundef zeroext false)
  %19 = load ptr, ptr %6, align 8
  %20 = getelementptr inbounds nuw i8, ptr %19, i64 8
  %21 = load ptr, ptr %20, align 8
  %22 = load i32, ptr %.0.i, align 8
  %23 = tail call ptr @val_to_str_ext_const(i32 noundef %22, ptr noundef nonnull @rnsap_ProcedureCode_vals_ext, ptr noundef nonnull @.str.8792)
  tail call void (ptr, i32, ptr, ...) @col_add_fstr(ptr noundef %21, i32 noundef 25, ptr noundef nonnull @.str.8791, ptr noundef %23)
  ret i32 %18
}